target datalayout = "e-m:e-p270:32:32-p271:32:32-p272:64:64-i64:64-i128:128-f80:128-n8:16:32:64-S128"
target triple = "x86_64-pc-linux-gnu"

%struct.AVFormatContext = type { ptr, ptr, ptr, ptr, ptr, i32, i32, ptr, i32, ptr, i32, ptr, ptr, i64, i64, i64, i32, i32, i32, i64, i64, ptr, i32, i32, ptr, i32, i32, i32, i32, ptr, i64, i32, i32, %struct.AVIOInterruptCB, i32, i32, i32, i32, i64, i32, i32, i32, i32, i32, i32, i32, i32, i32, i32, i32, i32, i64, i32, i32, i32, i32, i32, ptr, ptr, ptr, ptr, i32, ptr, ptr, ptr, ptr, i32, ptr, ptr, i64, ptr, ptr, ptr, i64 }
%struct.AVIOInterruptCB = type { ptr, ptr }

; Function Attrs: nounwind uwtable
define internal i32 @kvag_seek(ptr noundef %0, i32 noundef %1, i64 noundef %2, i32 noundef %3) #0 {
  %5 = alloca i32, align 4
  %6 = alloca ptr, align 8
  %7 = alloca i32, align 4
  %8 = alloca i64, align 8
  %9 = alloca i32, align 4
  store ptr %0, ptr %6, align 8, !tbaa !14
  store i32 %1, ptr %7, align 4, !tbaa !33
  store i64 %2, ptr %8, align 8, !tbaa !66
  store i32 %3, ptr %9, align 4, !tbaa !33
  %10 = load i64, ptr %8, align 8, !tbaa !66
  %11 = icmp ne i64 %10, 0
  br i1 %11, label %12, label %13

12:                                               ; preds = %4
  store i32 -22, ptr %5, align 4
  br label %19

13:                                               ; preds = %4
  %14 = load ptr, ptr %6, align 8, !tbaa !14
  %15 = getelementptr inbounds nuw %struct.AVFormatContext, ptr %14, i32 0, i32 4
  %16 = load ptr, ptr %15, align 8, !tbaa !18
  %17 = call i64 @avio_seek(ptr noundef %16, i64 noundef 14, i32 noundef 0)
  %18 = trunc i64 %17 to i32
  store i32 %18, ptr %5, align 4
  br label %19

19:                                               ; preds = %13, %12
  %20 = load i32, ptr %5, align 4
  ret i32 %20
}