; Function Attrs: nounwind uwtable
define internal i32 @kvag_seek(ptr noundef readonly captures(none) %0, i32 %1, i64 noundef %2, i32 %3) #1 {
  %.not = icmp eq i64 %2, 0
  br i1 %.not, label %5, label %10

5:                                                ; preds = %4
  %6 = getelementptr inbounds nuw i8, ptr %0, i64 32
  %7 = load ptr, ptr %6, align 8, !tbaa !12
  %8 = tail call i64 @avio_seek(ptr noundef %7, i64 noundef 14, i32 noundef 0) #4
  %9 = trunc i64 %8 to i32
  br label %10

10:                                               ; preds = %4, %5
  %.0 = phi i32 [ %9, %5 ], [ -22, %4 ]
  ret i32 %.0
}